
a.out:     file format elf64-x86-64


Disassembly of section .init:

0000000000400478 <_init>:
  400478:	48 83 ec 08          	sub    $0x8,%rsp
  40047c:	48 8b 05 1d 06 20 00 	mov    0x20061d(%rip),%rax        # 600aa0 <_DYNAMIC+0x1d0>
  400483:	48 85 c0             	test   %rax,%rax
  400486:	74 05                	je     40048d <_init+0x15>
  400488:	e8 83 00 00 00       	callq  400510 <getegid@plt+0x10>
  40048d:	48 83 c4 08          	add    $0x8,%rsp
  400491:	c3                   	retq   

Disassembly of section .plt:

00000000004004a0 <setresgid@plt-0x10>:
  4004a0:	ff 35 0a 06 20 00    	pushq  0x20060a(%rip)        # 600ab0 <_GLOBAL_OFFSET_TABLE_+0x8>
  4004a6:	ff 25 0c 06 20 00    	jmpq   *0x20060c(%rip)        # 600ab8 <_GLOBAL_OFFSET_TABLE_+0x10>
  4004ac:	0f 1f 40 00          	nopl   0x0(%rax)

00000000004004b0 <setresgid@plt>:
  4004b0:	ff 25 0a 06 20 00    	jmpq   *0x20060a(%rip)        # 600ac0 <_GLOBAL_OFFSET_TABLE_+0x18>
  4004b6:	68 00 00 00 00       	pushq  $0x0
  4004bb:	e9 e0 ff ff ff       	jmpq   4004a0 <_init+0x28>

00000000004004c0 <system@plt>:
  4004c0:	ff 25 02 06 20 00    	jmpq   *0x200602(%rip)        # 600ac8 <_GLOBAL_OFFSET_TABLE_+0x20>
  4004c6:	68 01 00 00 00       	pushq  $0x1
  4004cb:	e9 d0 ff ff ff       	jmpq   4004a0 <_init+0x28>

00000000004004d0 <printf@plt>:
  4004d0:	ff 25 fa 05 20 00    	jmpq   *0x2005fa(%rip)        # 600ad0 <_GLOBAL_OFFSET_TABLE_+0x28>
  4004d6:	68 02 00 00 00       	pushq  $0x2
  4004db:	e9 c0 ff ff ff       	jmpq   4004a0 <_init+0x28>

00000000004004e0 <__libc_start_main@plt>:
  4004e0:	ff 25 f2 05 20 00    	jmpq   *0x2005f2(%rip)        # 600ad8 <_GLOBAL_OFFSET_TABLE_+0x30>
  4004e6:	68 03 00 00 00       	pushq  $0x3
  4004eb:	e9 b0 ff ff ff       	jmpq   4004a0 <_init+0x28>

00000000004004f0 <gets@plt>:
  4004f0:	ff 25 ea 05 20 00    	jmpq   *0x2005ea(%rip)        # 600ae0 <_GLOBAL_OFFSET_TABLE_+0x38>
  4004f6:	68 04 00 00 00       	pushq  $0x4
  4004fb:	e9 a0 ff ff ff       	jmpq   4004a0 <_init+0x28>

0000000000400500 <getegid@plt>:
  400500:	ff 25 e2 05 20 00    	jmpq   *0x2005e2(%rip)        # 600ae8 <_GLOBAL_OFFSET_TABLE_+0x40>
  400506:	68 05 00 00 00       	pushq  $0x5
  40050b:	e9 90 ff ff ff       	jmpq   4004a0 <_init+0x28>

Disassembly of section .plt.got:

0000000000400510 <.plt.got>:
  400510:	ff 25 8a 05 20 00    	jmpq   *0x20058a(%rip)        # 600aa0 <_DYNAMIC+0x1d0>
  400516:	66 90                	xchg   %ax,%ax

Disassembly of section .text:

0000000000400520 <_start>:
  400520:	31 ed                	xor    %ebp,%ebp
  400522:	49 89 d1             	mov    %rdx,%r9
  400525:	5e                   	pop    %rsi
  400526:	48 89 e2             	mov    %rsp,%rdx
  400529:	48 83 e4 f0          	and    $0xfffffffffffffff0,%rsp
  40052d:	50                   	push   %rax
  40052e:	54                   	push   %rsp
  40052f:	49 c7 c0 10 07 40 00 	mov    $0x400710,%r8
  400536:	48 c7 c1 a0 06 40 00 	mov    $0x4006a0,%rcx
  40053d:	48 c7 c7 59 06 40 00 	mov    $0x400659,%rdi
  400544:	e8 97 ff ff ff       	callq  4004e0 <__libc_start_main@plt>
  400549:	f4                   	hlt    
  40054a:	66 0f 1f 44 00 00    	nopw   0x0(%rax,%rax,1)

0000000000400550 <deregister_tm_clones>:
  400550:	b8 07 0b 60 00       	mov    $0x600b07,%eax
  400555:	55                   	push   %rbp
  400556:	48 2d 00 0b 60 00    	sub    $0x600b00,%rax
  40055c:	48 83 f8 0e          	cmp    $0xe,%rax
  400560:	48 89 e5             	mov    %rsp,%rbp
  400563:	76 1b                	jbe    400580 <deregister_tm_clones+0x30>
  400565:	b8 00 00 00 00       	mov    $0x0,%eax
  40056a:	48 85 c0             	test   %rax,%rax
  40056d:	74 11                	je     400580 <deregister_tm_clones+0x30>
  40056f:	5d                   	pop    %rbp
  400570:	bf 00 0b 60 00       	mov    $0x600b00,%edi
  400575:	ff e0                	jmpq   *%rax
  400577:	66 0f 1f 84 00 00 00 	nopw   0x0(%rax,%rax,1)
  40057e:	00 00 
  400580:	5d                   	pop    %rbp
  400581:	c3                   	retq   
  400582:	0f 1f 40 00          	nopl   0x0(%rax)
  400586:	66 2e 0f 1f 84 00 00 	nopw   %cs:0x0(%rax,%rax,1)
  40058d:	00 00 00 

0000000000400590 <register_tm_clones>:
  400590:	be 00 0b 60 00       	mov    $0x600b00,%esi
  400595:	55                   	push   %rbp
  400596:	48 81 ee 00 0b 60 00 	sub    $0x600b00,%rsi
  40059d:	48 c1 fe 03          	sar    $0x3,%rsi
  4005a1:	48 89 e5             	mov    %rsp,%rbp
  4005a4:	48 89 f0             	mov    %rsi,%rax
  4005a7:	48 c1 e8 3f          	shr    $0x3f,%rax
  4005ab:	48 01 c6             	add    %rax,%rsi
  4005ae:	48 d1 fe             	sar    %rsi
  4005b1:	74 15                	je     4005c8 <register_tm_clones+0x38>
  4005b3:	b8 00 00 00 00       	mov    $0x0,%eax
  4005b8:	48 85 c0             	test   %rax,%rax
  4005bb:	74 0b                	je     4005c8 <register_tm_clones+0x38>
  4005bd:	5d                   	pop    %rbp
  4005be:	bf 00 0b 60 00       	mov    $0x600b00,%edi
  4005c3:	ff e0                	jmpq   *%rax
  4005c5:	0f 1f 00             	nopl   (%rax)
  4005c8:	5d                   	pop    %rbp
  4005c9:	c3                   	retq   
  4005ca:	66 0f 1f 44 00 00    	nopw   0x0(%rax,%rax,1)

00000000004005d0 <__do_global_dtors_aux>:
  4005d0:	80 3d 29 05 20 00 00 	cmpb   $0x0,0x200529(%rip)        # 600b00 <__TMC_END__>
  4005d7:	75 11                	jne    4005ea <__do_global_dtors_aux+0x1a>
  4005d9:	55                   	push   %rbp
  4005da:	48 89 e5             	mov    %rsp,%rbp
  4005dd:	e8 6e ff ff ff       	callq  400550 <deregister_tm_clones>
  4005e2:	5d                   	pop    %rbp
  4005e3:	c6 05 16 05 20 00 01 	movb   $0x1,0x200516(%rip)        # 600b00 <__TMC_END__>
  4005ea:	f3 c3                	repz retq 
  4005ec:	0f 1f 40 00          	nopl   0x0(%rax)

00000000004005f0 <frame_dummy>:
  4005f0:	bf c8 08 60 00       	mov    $0x6008c8,%edi
  4005f5:	48 83 3f 00          	cmpq   $0x0,(%rdi)
  4005f9:	75 05                	jne    400600 <frame_dummy+0x10>
  4005fb:	eb 93                	jmp    400590 <register_tm_clones>
  4005fd:	0f 1f 00             	nopl   (%rax)
  400600:	b8 00 00 00 00       	mov    $0x0,%eax
  400605:	48 85 c0             	test   %rax,%rax
  400608:	74 f1                	je     4005fb <frame_dummy+0xb>
  40060a:	55                   	push   %rbp
  40060b:	48 89 e5             	mov    %rsp,%rbp
  40060e:	ff d0                	callq  *%rax
  400610:	5d                   	pop    %rbp
  400611:	e9 7a ff ff ff       	jmpq   400590 <register_tm_clones>

0000000000400616 <get_flag>:
  400616:	55                   	push   %rbp
  400617:	48 89 e5             	mov    %rsp,%rbp
  40061a:	bf 24 07 40 00       	mov    $0x400724,%edi
  40061f:	e8 9c fe ff ff       	callq  4004c0 <system@plt>
  400624:	90                   	nop
  400625:	5d                   	pop    %rbp
  400626:	c3                   	retq   

0000000000400627 <get_input>:
  400627:	55                   	push   %rbp
  400628:	48 89 e5             	mov    %rsp,%rbp
  40062b:	48 83 c4 80          	add    $0xffffffffffffff80,%rsp
  40062f:	48 8d 45 80          	lea    -0x80(%rbp),%rax
  400633:	48 89 c7             	mov    %rax,%rdi
  400636:	b8 00 00 00 00       	mov    $0x0,%eax
  40063b:	e8 b0 fe ff ff       	callq  4004f0 <gets@plt>
  400640:	48 8d 45 80          	lea    -0x80(%rbp),%rax
  400644:	48 89 c6             	mov    %rax,%rsi
  400647:	bf 2c 07 40 00       	mov    $0x40072c,%edi
  40064c:	b8 00 00 00 00       	mov    $0x0,%eax
  400651:	e8 7a fe ff ff       	callq  4004d0 <printf@plt>
  400656:	90                   	nop
  400657:	c9                   	leaveq 
  400658:	c3                   	retq   

0000000000400659 <main>:
  400659:	55                   	push   %rbp
  40065a:	48 89 e5             	mov    %rsp,%rbp
  40065d:	48 83 ec 20          	sub    $0x20,%rsp
  400661:	89 7d ec             	mov    %edi,-0x14(%rbp)
  400664:	48 89 75 e0          	mov    %rsi,-0x20(%rbp)
  400668:	b8 00 00 00 00       	mov    $0x0,%eax
  40066d:	e8 8e fe ff ff       	callq  400500 <getegid@plt>
  400672:	89 45 fc             	mov    %eax,-0x4(%rbp)
  400675:	8b 55 fc             	mov    -0x4(%rbp),%edx
  400678:	8b 4d fc             	mov    -0x4(%rbp),%ecx
  40067b:	8b 45 fc             	mov    -0x4(%rbp),%eax
  40067e:	89 ce                	mov    %ecx,%esi
  400680:	89 c7                	mov    %eax,%edi
  400682:	b8 00 00 00 00       	mov    $0x0,%eax
  400687:	e8 24 fe ff ff       	callq  4004b0 <setresgid@plt>
  40068c:	b8 00 00 00 00       	mov    $0x0,%eax
  400691:	e8 91 ff ff ff       	callq  400627 <get_input>
  400696:	b8 00 00 00 00       	mov    $0x0,%eax
  40069b:	c9                   	leaveq 
  40069c:	c3                   	retq   
  40069d:	0f 1f 00             	nopl   (%rax)

00000000004006a0 <__libc_csu_init>:
  4006a0:	41 57                	push   %r15
  4006a2:	41 56                	push   %r14
  4006a4:	41 89 ff             	mov    %edi,%r15d
  4006a7:	41 55                	push   %r13
  4006a9:	41 54                	push   %r12
  4006ab:	4c 8d 25 06 02 20 00 	lea    0x200206(%rip),%r12        # 6008b8 <__frame_dummy_init_array_entry>
  4006b2:	55                   	push   %rbp
  4006b3:	48 8d 2d 06 02 20 00 	lea    0x200206(%rip),%rbp        # 6008c0 <__init_array_end>
  4006ba:	53                   	push   %rbx
  4006bb:	49 89 f6             	mov    %rsi,%r14
  4006be:	49 89 d5             	mov    %rdx,%r13
  4006c1:	4c 29 e5             	sub    %r12,%rbp
  4006c4:	48 83 ec 08          	sub    $0x8,%rsp
  4006c8:	48 c1 fd 03          	sar    $0x3,%rbp
  4006cc:	e8 a7 fd ff ff       	callq  400478 <_init>
  4006d1:	48 85 ed             	test   %rbp,%rbp
  4006d4:	74 20                	je     4006f6 <__libc_csu_init+0x56>
  4006d6:	31 db                	xor    %ebx,%ebx
  4006d8:	0f 1f 84 00 00 00 00 	nopl   0x0(%rax,%rax,1)
  4006df:	00 
  4006e0:	4c 89 ea             	mov    %r13,%rdx
  4006e3:	4c 89 f6             	mov    %r14,%rsi
  4006e6:	44 89 ff             	mov    %r15d,%edi
  4006e9:	41 ff 14 dc          	callq  *(%r12,%rbx,8)
  4006ed:	48 83 c3 01          	add    $0x1,%rbx
  4006f1:	48 39 eb             	cmp    %rbp,%rbx
  4006f4:	75 ea                	jne    4006e0 <__libc_csu_init+0x40>
  4006f6:	48 83 c4 08          	add    $0x8,%rsp
  4006fa:	5b                   	pop    %rbx
  4006fb:	5d                   	pop    %rbp
  4006fc:	41 5c                	pop    %r12
  4006fe:	41 5d                	pop    %r13
  400700:	41 5e                	pop    %r14
  400702:	41 5f                	pop    %r15
  400704:	c3                   	retq   
  400705:	90                   	nop
  400706:	66 2e 0f 1f 84 00 00 	nopw   %cs:0x0(%rax,%rax,1)
  40070d:	00 00 00 

0000000000400710 <__libc_csu_fini>:
  400710:	f3 c3                	repz retq 

Disassembly of section .fini:

0000000000400714 <_fini>:
  400714:	48 83 ec 08          	sub    $0x8,%rsp
  400718:	48 83 c4 08          	add    $0x8,%rsp
  40071c:	c3                   	retq   
